(dp0
S'grad_clip'
p1
I5
sS'use_config_file_if_checkpoint_exists'
p2
I01
sS'dropout_output_keep_prob'
p3
F1.0
sS'num_layers'
p4
I5
sS'checkpoint_dir'
p5
S'data/checkpoints/'
p6
sS'log_level'
p7
I20
sS'forward_only'
p8
I00
sS'rnn_state_reset_ratio'
p9
F0.25
sS'signal_processing'
p10
S'fbank'
p11
sS'hidden_size'
p12
I1024
sS'lr_decay_factor'
p13
F0.5
sS'num_proj'
p14
I1024
sS'steps_per_evaluation'
p15
I1000
sS'time_major'
p16
I01
sS'max_target_seq_length'
p17
I600
sS'learning_rate'
p18
F1.0
sS'batch_size'
p19
I16
sS'init_scale'
p20
F0.01
sS'Debug'
p21
I01
sS'steps_per_checkpoint'
p22
I100
sS'mini_batch_size'
p23
I3
sS'max_input_seq_length'
p24
I1500
sS'language'
p25
S'chinese'
p26
sS'dropout_input_keep_prob'
p27
F1.0
sS'log_file'
p28
S'data/full_data.log'
p29
s.